; Function Attrs: mustprogress nounwind uwtable
define dso_local void @_ZNK4llvm21MachineRegionInfoPass5printERNS_11raw_ostreamEPKNS_6ModuleE(ptr nocapture noundef nonnull readonly align 8 dereferenceable(120) %0, ptr noundef nonnull align 8 dereferenceable(48) %1, ptr nocapture readnone %2) unnamed_addr #0 align 2 {
  %4 = getelementptr inbounds nuw i8, ptr %1, i64 24
  %5 = load ptr, ptr %4, align 8
  %6 = getelementptr inbounds nuw i8, ptr %1, i64 32
  %7 = load ptr, ptr %6, align 8
  %8 = ptrtoint ptr %5 to i64
  %9 = ptrtoint ptr %7 to i64
  %10 = sub i64 %8, %9
  %11 = icmp ult i64 %10, 13
  br i1 %11, label %12, label %14

12:                                               ; preds = %3
  %13 = tail call noundef nonnull align 8 dereferenceable(48) ptr @_ZN4llvm11raw_ostream5writeEPKcm(ptr noundef nonnull align 8 dereferenceable(48) %1, ptr noundef nonnull @.str.16, i64 noundef 13) #18
  br label %_ZN4llvm11raw_ostreamlsEPKc.exit.i

14:                                               ; preds = %3
  tail call void @llvm.memcpy.p0.p0.i64(ptr noundef nonnull align 1 dereferenceable(13) %7, ptr noundef nonnull align 1 dereferenceable(13) @.str.16, i64 13, i1 false)
  %15 = load ptr, ptr %6, align 8
  %16 = getelementptr inbounds i8, ptr %15, i64 13
  store ptr %16, ptr %6, align 8
  br label %_ZN4llvm11raw_ostreamlsEPKc.exit.i

_ZN4llvm11raw_ostreamlsEPKc.exit.i:               ; preds = %14, %12
  %17 = getelementptr inbounds i8, ptr %0, i64 88
  %18 = load ptr, ptr %17, align 8
  %19 = load i32, ptr @_ZN4llvm14RegionInfoBaseINS_12RegionTraitsINS_15MachineFunctionEEEE10printStyleE, align 4
  tail call void @_ZNK4llvm10RegionBaseINS_12RegionTraitsINS_15MachineFunctionEEEE5printERNS_11raw_ostreamEbjNS4_10PrintStyleE(ptr noundef nonnull align 8 dereferenceable(112) %18, ptr noundef nonnull align 8 dereferenceable(48) %1, i1 noundef zeroext true, i32 noundef 0, i32 noundef %19)
  %20 = load ptr, ptr %4, align 8
  %21 = load ptr, ptr %6, align 8
  %22 = ptrtoint ptr %20 to i64
  %23 = ptrtoint ptr %21 to i64
  %24 = sub i64 %22, %23
  %25 = icmp ult i64 %24, 16
  br i1 %25, label %26, label %28

26:                                               ; preds = %_ZN4llvm11raw_ostreamlsEPKc.exit.i
  %27 = tail call noundef nonnull align 8 dereferenceable(48) ptr @_ZN4llvm11raw_ostream5writeEPKcm(ptr noundef nonnull align 8 dereferenceable(48) %1, ptr noundef nonnull @.str.17, i64 noundef 16) #18
  br label %_ZNK4llvm14RegionInfoBaseINS_12RegionTraitsINS_15MachineFunctionEEEE5printERNS_11raw_ostreamE.exit

28:                                               ; preds = %_ZN4llvm11raw_ostreamlsEPKc.exit.i
  tail call void @llvm.memcpy.p0.p0.i64(ptr noundef nonnull align 1 dereferenceable(16) %21, ptr noundef nonnull align 1 dereferenceable(16) @.str.17, i64 16, i1 false)
  %29 = load ptr, ptr %6, align 8
  %30 = getelementptr inbounds i8, ptr %29, i64 16
  store ptr %30, ptr %6, align 8
  br label %_ZNK4llvm14RegionInfoBaseINS_12RegionTraitsINS_15MachineFunctionEEEE5printERNS_11raw_ostreamE.exit

_ZNK4llvm14RegionInfoBaseINS_12RegionTraitsINS_15MachineFunctionEEEE5printERNS_11raw_ostreamE.exit: ; preds = %26, %28
  ret void
}